; Function Attrs: mustprogress uwtable
define void @_ZN6GLArea14sendViewerShotE7QString(ptr noundef nonnull align 8 dereferenceable(1676) %0, ptr nocapture noundef readonly %1) local_unnamed_addr #9 align 2 personality ptr @__gxx_personality_v0 {
  %3 = alloca %"class.vcg::Shot", align 4
  %4 = alloca %struct.QPair, align 4
  %5 = alloca %class.QString, align 8
  %6 = alloca %"class.vcg::Shot", align 4
  call void @_ZN6GLArea17shotFromTrackballEv(ptr dead_on_unwind nonnull writable sret(%struct.QPair) align 4 %4, ptr noundef nonnull align 8 dereferenceable(1676) %0)
  call void @llvm.memcpy.p0.p0.i64(ptr noundef nonnull align 4 dereferenceable(132) %3, ptr noundef nonnull align 4 dereferenceable(132) %4, i64 132, i1 false)
  %7 = load ptr, ptr %1, align 8
  store ptr %7, ptr %5, align 8
  %8 = load atomic i32, ptr %7 monotonic, align 4
  %9 = add i32 %8, -1
  %or.cond.not.i.i = icmp ult i32 %9, -2
  br i1 %or.cond.not.i.i, label %10, label %_ZN7QStringC2ERKS_.exit

10:                                               ; preds = %2
  %11 = atomicrmw add ptr %7, i32 1 seq_cst, align 4
  br label %_ZN7QStringC2ERKS_.exit

_ZN7QStringC2ERKS_.exit:                          ; preds = %2, %10
  call void @llvm.memcpy.p0.p0.i64(ptr noundef nonnull align 4 dereferenceable(132) %6, ptr noundef nonnull align 4 dereferenceable(132) %3, i64 132, i1 false)
  invoke void @_ZN6GLArea12transmitShotE7QStringN3vcg4ShotIfNS1_8Matrix44IfEEEE(ptr noundef nonnull align 8 dereferenceable(1676) %0, ptr noundef nonnull %5, ptr noundef nonnull %6)
          to label %12 unwind label %17

12:                                               ; preds = %_ZN7QStringC2ERKS_.exit
  %13 = load ptr, ptr %5, align 8
  %14 = load atomic i32, ptr %13 monotonic, align 4
  switch i32 %14, label %_ZN9QtPrivate8RefCount5derefEv.exit.i [
    i32 0, label %_ZN9QtPrivate8RefCount5derefEv.exit.thread2.i
    i32 -1, label %_ZN7QStringD2Ev.exit
  ]

_ZN9QtPrivate8RefCount5derefEv.exit.i:            ; preds = %12
  %15 = atomicrmw sub ptr %13, i32 1 seq_cst, align 4
  %.not.i = icmp eq i32 %15, 1
  br i1 %.not.i, label %_ZN9QtPrivate8RefCount5derefEv.exit._ZN9QtPrivate8RefCount5derefEv.exit.thread2_crit_edge.i, label %_ZN7QStringD2Ev.exit

_ZN9QtPrivate8RefCount5derefEv.exit._ZN9QtPrivate8RefCount5derefEv.exit.thread2_crit_edge.i: ; preds = %_ZN9QtPrivate8RefCount5derefEv.exit.i
  %.pre.i = load ptr, ptr %5, align 8
  br label %_ZN9QtPrivate8RefCount5derefEv.exit.thread2.i

_ZN9QtPrivate8RefCount5derefEv.exit.thread2.i:    ; preds = %_ZN9QtPrivate8RefCount5derefEv.exit._ZN9QtPrivate8RefCount5derefEv.exit.thread2_crit_edge.i, %12
  %16 = phi ptr [ %.pre.i, %_ZN9QtPrivate8RefCount5derefEv.exit._ZN9QtPrivate8RefCount5derefEv.exit.thread2_crit_edge.i ], [ %13, %12 ]
  call void @_ZN10QArrayData10deallocateEPS_mm(ptr noundef %16, i64 noundef 2, i64 noundef 8) #32
  br label %_ZN7QStringD2Ev.exit

_ZN7QStringD2Ev.exit:                             ; preds = %12, %_ZN9QtPrivate8RefCount5derefEv.exit.i, %_ZN9QtPrivate8RefCount5derefEv.exit.thread2.i
  ret void

17:                                               ; preds = %_ZN7QStringC2ERKS_.exit
  %18 = landingpad { ptr, i32 }
          cleanup
  call void @_ZN7QStringD2Ev(ptr noundef nonnull align 8 dereferenceable(8) %5) #32
  resume { ptr, i32 } %18
}